target datalayout = "e-m:e-p270:32:32-p271:32:32-p272:64:64-i64:64-i128:128-f80:128-n8:16:32:64-S128"
target triple = "x86_64-pc-linux-gnu"

%struct.SDL_Renderer = type { ptr, ptr, ptr, ptr, ptr, ptr, ptr, ptr, ptr, ptr, ptr, ptr, ptr, ptr, ptr, ptr, ptr, ptr, ptr, ptr, ptr, ptr, ptr, ptr, ptr, ptr, ptr, ptr, ptr, ptr, i32, i8, ptr, i8, i8, i8, i64, i64, ptr, %struct.SDL_RenderViewState, %struct.SDL_FPoint, i32, i32, ptr, ptr, ptr, i32, float, float, float, float, %struct.SDL_FColor, i32, i32, i32, ptr, ptr, ptr, ptr, i32, %struct.SDL_FColor, float, %struct.SDL_Rect, %struct.SDL_Rect, i8, i8, i8, i8, ptr, i64, i64, i8, ptr, ptr, i32, ptr, i8, ptr, ptr }
%struct.SDL_RenderViewState = type { i32, i32, %struct.SDL_Rect, %struct.SDL_Rect, %struct.SDL_Rect, %struct.SDL_Rect, i8, %struct.SDL_FPoint, i32, i32, i32, %struct.SDL_FRect, %struct.SDL_FRect, %struct.SDL_FPoint, %struct.SDL_FPoint, %struct.SDL_FPoint }
%struct.SDL_FRect = type { float, float, float, float }
%struct.SDL_FPoint = type { float, float }
%struct.SDL_FColor = type { float, float, float, float }
%struct.SDL_Rect = type { i32, i32, i32, i32 }
%struct.GPU_RenderData = type { ptr, %struct.GPU_Shaders, %struct.GPU_PipelineCache, %struct.anon, %struct.anon.0, %struct.anon.1, %struct.anon.2, [8 x ptr] }
%struct.GPU_Shaders = type { [3 x ptr], [6 x ptr] }
%struct.GPU_PipelineCache = type { ptr }
%struct.anon = type { ptr, i32, i32, i32 }
%struct.anon.0 = type { i32, i32 }
%struct.anon.1 = type { ptr, ptr, i32 }
%struct.anon.2 = type { ptr, ptr, ptr, %struct.SDL_GPUColorTargetInfo, %struct.SDL_GPUViewport, %struct.SDL_Rect, %struct.SDL_FColor, i8, i8 }
%struct.SDL_GPUColorTargetInfo = type { ptr, i32, i32, %struct.SDL_FColor, i32, i32, ptr, i32, i32, i8, i8, i8, i8 }
%struct.SDL_GPUViewport = type { float, float, float, float, float, float }

; Function Attrs: nounwind uwtable
define internal void @ReleaseVertexBuffer(ptr noundef %0) #0 {
  %2 = alloca ptr, align 8
  store ptr %0, ptr %2, align 8
  %3 = load ptr, ptr %2, align 8
  %4 = getelementptr inbounds nuw %struct.GPU_RenderData, ptr %3, i32 0, i32 5
  %5 = getelementptr inbounds nuw %struct.anon.1, ptr %4, i32 0, i32 1
  %6 = load ptr, ptr %5, align 8
  %7 = icmp ne ptr %6, null
  br i1 %7, label %8, label %16

8:                                                ; preds = %1
  %9 = load ptr, ptr %2, align 8
  %10 = getelementptr inbounds nuw %struct.GPU_RenderData, ptr %9, i32 0, i32 0
  %11 = load ptr, ptr %10, align 8
  %12 = load ptr, ptr %2, align 8
  %13 = getelementptr inbounds nuw %struct.GPU_RenderData, ptr %12, i32 0, i32 5
  %14 = getelementptr inbounds nuw %struct.anon.1, ptr %13, i32 0, i32 1
  %15 = load ptr, ptr %14, align 8
  call void @SDL_ReleaseGPUBuffer_REAL(ptr noundef %11, ptr noundef %15)
  br label %16

16:                                               ; preds = %8, %1
  %17 = load ptr, ptr %2, align 8
  %18 = getelementptr inbounds nuw %struct.GPU_RenderData, ptr %17, i32 0, i32 5
  %19 = getelementptr inbounds nuw %struct.anon.1, ptr %18, i32 0, i32 0
  %20 = load ptr, ptr %19, align 8
  %21 = icmp ne ptr %20, null
  br i1 %21, label %22, label %30

22:                                               ; preds = %16
  %23 = load ptr, ptr %2, align 8
  %24 = getelementptr inbounds nuw %struct.GPU_RenderData, ptr %23, i32 0, i32 0
  %25 = load ptr, ptr %24, align 8
  %26 = load ptr, ptr %2, align 8
  %27 = getelementptr inbounds nuw %struct.GPU_RenderData, ptr %26, i32 0, i32 5
  %28 = getelementptr inbounds nuw %struct.anon.1, ptr %27, i32 0, i32 0
  %29 = load ptr, ptr %28, align 8
  call void @SDL_ReleaseGPUTransferBuffer_REAL(ptr noundef %25, ptr noundef %29)
  br label %30

30:                                               ; preds = %22, %16
  %31 = load ptr, ptr %2, align 8
  %32 = getelementptr inbounds nuw %struct.GPU_RenderData, ptr %31, i32 0, i32 5
  %33 = getelementptr inbounds nuw %struct.anon.1, ptr %32, i32 0, i32 2
  store i32 0, ptr %33, align 8
  ret void
}

; Function Attrs: nounwind uwtable
define internal void @GPU_DestroyRenderer(ptr noundef %0) #0 {
  %2 = alloca ptr, align 8
  %3 = alloca ptr, align 8
  %4 = alloca i32, align 4
  %5 = alloca i32, align 4
  store ptr %0, ptr %2, align 8
  call void @llvm.lifetime.start.p0(i64 8, ptr %3) #10
  %6 = load ptr, ptr %2, align 8
  %7 = getelementptr inbounds nuw %struct.SDL_Renderer, ptr %6, i32 0, i32 77
  %8 = load ptr, ptr %7, align 8
  store ptr %8, ptr %3, align 8
  %9 = load ptr, ptr %3, align 8
  %10 = icmp ne ptr %9, null
  br i1 %10, label %12, label %11

11:                                               ; preds = %1
  store i32 1, ptr %4, align 4
  br label %105

12:                                               ; preds = %1
  %13 = load ptr, ptr %3, align 8
  %14 = getelementptr inbounds nuw %struct.GPU_RenderData, ptr %13, i32 0, i32 6
  %15 = getelementptr inbounds nuw %struct.anon.2, ptr %14, i32 0, i32 2
  %16 = load ptr, ptr %15, align 8
  %17 = icmp ne ptr %16, null
  br i1 %17, label %18, label %27

18:                                               ; preds = %12
  %19 = load ptr, ptr %3, align 8
  %20 = getelementptr inbounds nuw %struct.GPU_RenderData, ptr %19, i32 0, i32 6
  %21 = getelementptr inbounds nuw %struct.anon.2, ptr %20, i32 0, i32 2
  %22 = load ptr, ptr %21, align 8
  %23 = call zeroext i1 @SDL_SubmitGPUCommandBuffer_REAL(ptr noundef %22)
  %24 = load ptr, ptr %3, align 8
  %25 = getelementptr inbounds nuw %struct.GPU_RenderData, ptr %24, i32 0, i32 6
  %26 = getelementptr inbounds nuw %struct.anon.2, ptr %25, i32 0, i32 2
  store ptr null, ptr %26, align 8
  br label %27

27:                                               ; preds = %18, %12
  call void @llvm.lifetime.start.p0(i64 4, ptr %5) #10
  store i32 0, ptr %5, align 4
  br label %28

28:                                               ; preds = %52, %27
  %29 = load i32, ptr %5, align 4
  %30 = zext i32 %29 to i64
  %31 = icmp ult i64 %30, 8
  br i1 %31, label %33, label %32

32:                                               ; preds = %28
  store i32 2, ptr %4, align 4
  call void @llvm.lifetime.end.p0(i64 4, ptr %5) #10
  br label %55

33:                                               ; preds = %28
  %34 = load ptr, ptr %3, align 8
  %35 = getelementptr inbounds nuw %struct.GPU_RenderData, ptr %34, i32 0, i32 7
  %36 = load i32, ptr %5, align 4
  %37 = zext i32 %36 to i64
  %38 = getelementptr inbounds nuw [8 x ptr], ptr %35, i64 0, i64 %37
  %39 = load ptr, ptr %38, align 8
  %40 = icmp ne ptr %39, null
  br i1 %40, label %41, label %51

41:                                               ; preds = %33
  %42 = load ptr, ptr %3, align 8
  %43 = getelementptr inbounds nuw %struct.GPU_RenderData, ptr %42, i32 0, i32 0
  %44 = load ptr, ptr %43, align 8
  %45 = load ptr, ptr %3, align 8
  %46 = getelementptr inbounds nuw %struct.GPU_RenderData, ptr %45, i32 0, i32 7
  %47 = load i32, ptr %5, align 4
  %48 = zext i32 %47 to i64
  %49 = getelementptr inbounds nuw [8 x ptr], ptr %46, i64 0, i64 %48
  %50 = load ptr, ptr %49, align 8
  call void @SDL_ReleaseGPUSampler_REAL(ptr noundef %44, ptr noundef %50)
  br label %51

51:                                               ; preds = %41, %33
  br label %52

52:                                               ; preds = %51
  %53 = load i32, ptr %5, align 4
  %54 = add i32 %53, 1
  store i32 %54, ptr %5, align 4
  br label %28, !llvm.loop !13

55:                                               ; preds = %32
  %56 = load ptr, ptr %3, align 8
  %57 = getelementptr inbounds nuw %struct.GPU_RenderData, ptr %56, i32 0, i32 3
  %58 = getelementptr inbounds nuw %struct.anon, ptr %57, i32 0, i32 0
  %59 = load ptr, ptr %58, align 8
  %60 = icmp ne ptr %59, null
  br i1 %60, label %61, label %69

61:                                               ; preds = %55
  %62 = load ptr, ptr %3, align 8
  %63 = getelementptr inbounds nuw %struct.GPU_RenderData, ptr %62, i32 0, i32 0
  %64 = load ptr, ptr %63, align 8
  %65 = load ptr, ptr %3, align 8
  %66 = getelementptr inbounds nuw %struct.GPU_RenderData, ptr %65, i32 0, i32 3
  %67 = getelementptr inbounds nuw %struct.anon, ptr %66, i32 0, i32 0
  %68 = load ptr, ptr %67, align 8
  call void @SDL_ReleaseGPUTexture_REAL(ptr noundef %64, ptr noundef %68)
  br label %69

69:                                               ; preds = %61, %55
  %70 = load ptr, ptr %2, align 8
  %71 = getelementptr inbounds nuw %struct.SDL_Renderer, ptr %70, i32 0, i32 32
  %72 = load ptr, ptr %71, align 8
  %73 = icmp ne ptr %72, null
  br i1 %73, label %74, label %86

74:                                               ; preds = %69
  %75 = load ptr, ptr %3, align 8
  %76 = getelementptr inbounds nuw %struct.GPU_RenderData, ptr %75, i32 0, i32 0
  %77 = load ptr, ptr %76, align 8
  %78 = icmp ne ptr %77, null
  br i1 %78, label %79, label %86

79:                                               ; preds = %74
  %80 = load ptr, ptr %3, align 8
  %81 = getelementptr inbounds nuw %struct.GPU_RenderData, ptr %80, i32 0, i32 0
  %82 = load ptr, ptr %81, align 8
  %83 = load ptr, ptr %2, align 8
  %84 = getelementptr inbounds nuw %struct.SDL_Renderer, ptr %83, i32 0, i32 32
  %85 = load ptr, ptr %84, align 8
  call void @SDL_ReleaseWindowFromGPUDevice_REAL(ptr noundef %82, ptr noundef %85)
  br label %86

86:                                               ; preds = %79, %74, %69
  %87 = load ptr, ptr %3, align 8
  call void @ReleaseVertexBuffer(ptr noundef %87)
  %88 = load ptr, ptr %3, align 8
  %89 = getelementptr inbounds nuw %struct.GPU_RenderData, ptr %88, i32 0, i32 2
  call void @GPU_DestroyPipelineCache(ptr noundef %89)
  %90 = load ptr, ptr %3, align 8
  %91 = getelementptr inbounds nuw %struct.GPU_RenderData, ptr %90, i32 0, i32 0
  %92 = load ptr, ptr %91, align 8
  %93 = icmp ne ptr %92, null
  br i1 %93, label %94, label %103

94:                                               ; preds = %86
  %95 = load ptr, ptr %3, align 8
  %96 = getelementptr inbounds nuw %struct.GPU_RenderData, ptr %95, i32 0, i32 1
  %97 = load ptr, ptr %3, align 8
  %98 = getelementptr inbounds nuw %struct.GPU_RenderData, ptr %97, i32 0, i32 0
  %99 = load ptr, ptr %98, align 8
  call void @GPU_ReleaseShaders(ptr noundef %96, ptr noundef %99)
  %100 = load ptr, ptr %3, align 8
  %101 = getelementptr inbounds nuw %struct.GPU_RenderData, ptr %100, i32 0, i32 0
  %102 = load ptr, ptr %101, align 8
  call void @SDL_DestroyGPUDevice_REAL(ptr noundef %102)
  br label %103

103:                                              ; preds = %94, %86
  %104 = load ptr, ptr %3, align 8
  call void @SDL_free_REAL(ptr noundef %104)
  store i32 0, ptr %4, align 4
  br label %105

105:                                              ; preds = %103, %11
  call void @llvm.lifetime.end.p0(i64 8, ptr %3) #10
  %106 = load i32, ptr %4, align 4
  switch i32 %106, label %108 [
    i32 0, label %107
    i32 1, label %107
  ]

107:                                              ; preds = %105, %105
  ret void

108:                                              ; preds = %105
  unreachable
}