; Function Attrs: nounwind uwtable
define internal void @GPU_DestroyRenderer(ptr noundef readonly captures(none) %0) #0 {
  %2 = getelementptr inbounds nuw i8, ptr %0, i64 696
  %3 = load ptr, ptr %2, align 8
  %.not = icmp eq ptr %3, null
  br i1 %.not, label %45, label %4

4:                                                ; preds = %1
  %5 = getelementptr inbounds nuw i8, ptr %3, i64 160
  %6 = load ptr, ptr %5, align 8
  %.not33 = icmp eq ptr %6, null
  br i1 %.not33, label %9, label %7

7:                                                ; preds = %4
  %8 = tail call zeroext i1 @SDL_SubmitGPUCommandBuffer_REAL(ptr noundef nonnull %6) #11
  store ptr null, ptr %5, align 8
  br label %9

9:                                                ; preds = %7, %4
  %10 = getelementptr inbounds nuw i8, ptr %3, i64 296
  br label %14

11:                                               ; preds = %19
  %12 = getelementptr inbounds nuw i8, ptr %3, i64 88
  %13 = load ptr, ptr %12, align 8
  %.not34 = icmp eq ptr %13, null
  br i1 %.not34, label %22, label %20

14:                                               ; preds = %9, %19
  %indvars.iv = phi i64 [ 0, %9 ], [ %indvars.iv.next, %19 ]
  %15 = getelementptr inbounds nuw [8 x ptr], ptr %10, i64 0, i64 %indvars.iv
  %16 = load ptr, ptr %15, align 8
  %.not38 = icmp eq ptr %16, null
  br i1 %.not38, label %19, label %17

17:                                               ; preds = %14
  %18 = load ptr, ptr %3, align 8
  tail call void @SDL_ReleaseGPUSampler_REAL(ptr noundef %18, ptr noundef nonnull %16) #11
  br label %19

19:                                               ; preds = %14, %17
  %indvars.iv.next = add nuw nsw i64 %indvars.iv, 1
  %exitcond.not = icmp eq i64 %indvars.iv.next, 8
  br i1 %exitcond.not, label %11, label %14, !llvm.loop !11

20:                                               ; preds = %11
  %21 = load ptr, ptr %3, align 8
  tail call void @SDL_ReleaseGPUTexture_REAL(ptr noundef %21, ptr noundef nonnull %13) #11
  br label %22

22:                                               ; preds = %20, %11
  %23 = getelementptr inbounds nuw i8, ptr %0, i64 248
  %24 = load ptr, ptr %23, align 8
  %.not35 = icmp eq ptr %24, null
  br i1 %.not35, label %28, label %25

25:                                               ; preds = %22
  %26 = load ptr, ptr %3, align 8
  %.not36 = icmp eq ptr %26, null
  br i1 %.not36, label %28, label %27

27:                                               ; preds = %25
  tail call void @SDL_ReleaseWindowFromGPUDevice_REAL(ptr noundef nonnull %26, ptr noundef nonnull %24) #11
  br label %28

28:                                               ; preds = %27, %25, %22
  %29 = getelementptr inbounds nuw i8, ptr %3, i64 120
  %30 = getelementptr inbounds nuw i8, ptr %3, i64 128
  %31 = load ptr, ptr %30, align 8
  %.not.i = icmp eq ptr %31, null
  br i1 %.not.i, label %34, label %32

32:                                               ; preds = %28
  %33 = load ptr, ptr %3, align 8
  tail call void @SDL_ReleaseGPUBuffer_REAL(ptr noundef %33, ptr noundef nonnull %31) #11
  br label %34

34:                                               ; preds = %32, %28
  %35 = load ptr, ptr %29, align 8
  %.not8.i = icmp eq ptr %35, null
  br i1 %.not8.i, label %ReleaseVertexBuffer.exit, label %36

36:                                               ; preds = %34
  %37 = load ptr, ptr %3, align 8
  tail call void @SDL_ReleaseGPUTransferBuffer_REAL(ptr noundef %37, ptr noundef nonnull %35) #11
  br label %ReleaseVertexBuffer.exit

ReleaseVertexBuffer.exit:                         ; preds = %34, %36
  %38 = getelementptr inbounds nuw i8, ptr %3, i64 136
  store i32 0, ptr %38, align 8
  %39 = getelementptr inbounds nuw i8, ptr %3, i64 80
  tail call void @GPU_DestroyPipelineCache(ptr noundef nonnull %39) #11
  %40 = load ptr, ptr %3, align 8
  %.not37 = icmp eq ptr %40, null
  br i1 %.not37, label %44, label %41

41:                                               ; preds = %ReleaseVertexBuffer.exit
  %42 = getelementptr inbounds nuw i8, ptr %3, i64 8
  tail call void @GPU_ReleaseShaders(ptr noundef nonnull %42, ptr noundef nonnull %40) #11
  %43 = load ptr, ptr %3, align 8
  tail call void @SDL_DestroyGPUDevice_REAL(ptr noundef %43) #11
  br label %44

44:                                               ; preds = %41, %ReleaseVertexBuffer.exit
  tail call void @SDL_free_REAL(ptr noundef nonnull %3) #11
  br label %45

45:                                               ; preds = %1, %44
  ret void
}